; Function Attrs: mustprogress nofree norecurse nosync nounwind memory(readwrite, inaccessiblemem: none) uwtable
define internal noundef ptr @_ZN4pugi4impl12_GLOBAL__N_122strconv_attribute_implINS1_8opt_trueEE11parse_wconvEPcc(ptr noundef %s, i8 noundef signext %end_quote) unnamed_addr #17 align 2 {
entry:
  %g = alloca %"struct.pugi::impl::(anonymous namespace)::gap", align 8
  call void @llvm.memset.p0.i64(ptr noundef nonnull align 8 dereferenceable(16) %g, i8 0, i64 16, i1 false)
  %size.i6 = getelementptr inbounds i8, ptr %g, i64 8
  br label %while.body

while.body:                                       ; preds = %while.body.backedge, %entry
  %s.addr.0 = phi ptr [ %s, %entry ], [ %s.addr.0.be, %while.body.backedge ]
  %0 = load i8, ptr %s.addr.0, align 1
  %idxprom26 = zext i8 %0 to i64
  %arrayidx127 = getelementptr inbounds [256 x i8], ptr @_ZN4pugi4impl12_GLOBAL__N_114chartype_tableE, i64 0, i64 %idxprom26
  %1 = load i8, ptr %arrayidx127, align 1
  %2 = and i8 %1, 4
  %tobool.not28 = icmp eq i8 %2, 0
  br i1 %tobool.not28, label %if.end, label %for.end

if.end:                                           ; preds = %while.body, %if.end38
  %s.addr.129 = phi ptr [ %add.ptr39, %if.end38 ], [ %s.addr.0, %while.body ]
  %arrayidx4 = getelementptr inbounds i8, ptr %s.addr.129, i64 1
  %3 = load i8, ptr %arrayidx4, align 1
  %idxprom5 = zext i8 %3 to i64
  %arrayidx6 = getelementptr inbounds [256 x i8], ptr @_ZN4pugi4impl12_GLOBAL__N_114chartype_tableE, i64 0, i64 %idxprom5
  %4 = load i8, ptr %arrayidx6, align 1
  %5 = and i8 %4, 4
  %tobool9.not = icmp eq i8 %5, 0
  br i1 %tobool9.not, label %if.end14, label %for.end.loopexit.split.loop.exit40

if.end14:                                         ; preds = %if.end
  %arrayidx15 = getelementptr inbounds i8, ptr %s.addr.129, i64 2
  %6 = load i8, ptr %arrayidx15, align 1
  %idxprom16 = zext i8 %6 to i64
  %arrayidx17 = getelementptr inbounds [256 x i8], ptr @_ZN4pugi4impl12_GLOBAL__N_114chartype_tableE, i64 0, i64 %idxprom16
  %7 = load i8, ptr %arrayidx17, align 1
  %8 = and i8 %7, 4
  %tobool20.not = icmp eq i8 %8, 0
  br i1 %tobool20.not, label %if.end26, label %for.end.loopexit.split.loop.exit36

if.end26:                                         ; preds = %if.end14
  %arrayidx27 = getelementptr inbounds i8, ptr %s.addr.129, i64 3
  %9 = load i8, ptr %arrayidx27, align 1
  %idxprom28 = zext i8 %9 to i64
  %arrayidx29 = getelementptr inbounds [256 x i8], ptr @_ZN4pugi4impl12_GLOBAL__N_114chartype_tableE, i64 0, i64 %idxprom28
  %10 = load i8, ptr %arrayidx29, align 1
  %11 = and i8 %10, 4
  %tobool32.not = icmp eq i8 %11, 0
  br i1 %tobool32.not, label %if.end38, label %for.end.loopexit.split.loop.exit

if.end38:                                         ; preds = %if.end26
  %add.ptr39 = getelementptr inbounds i8, ptr %s.addr.129, i64 4
  %12 = load i8, ptr %add.ptr39, align 1
  %idxprom = zext i8 %12 to i64
  %arrayidx1 = getelementptr inbounds [256 x i8], ptr @_ZN4pugi4impl12_GLOBAL__N_114chartype_tableE, i64 0, i64 %idxprom
  %13 = load i8, ptr %arrayidx1, align 1
  %14 = and i8 %13, 4
  %tobool.not = icmp eq i8 %14, 0
  br i1 %tobool.not, label %if.end, label %for.end, !llvm.loop !273

for.end.loopexit.split.loop.exit:                 ; preds = %if.end26
  %arrayidx27.le = getelementptr inbounds i8, ptr %s.addr.129, i64 3
  br label %for.end

for.end.loopexit.split.loop.exit36:               ; preds = %if.end14
  %arrayidx15.le = getelementptr inbounds i8, ptr %s.addr.129, i64 2
  br label %for.end

for.end.loopexit.split.loop.exit40:               ; preds = %if.end
  %arrayidx4.le = getelementptr inbounds i8, ptr %s.addr.129, i64 1
  br label %for.end

for.end:                                          ; preds = %if.end38, %for.end.loopexit.split.loop.exit, %for.end.loopexit.split.loop.exit36, %for.end.loopexit.split.loop.exit40, %while.body
  %15 = phi i8 [ %1, %while.body ], [ %10, %for.end.loopexit.split.loop.exit ], [ %7, %for.end.loopexit.split.loop.exit36 ], [ %4, %for.end.loopexit.split.loop.exit40 ], [ %13, %if.end38 ]
  %16 = phi i8 [ %0, %while.body ], [ %9, %for.end.loopexit.split.loop.exit ], [ %6, %for.end.loopexit.split.loop.exit36 ], [ %3, %for.end.loopexit.split.loop.exit40 ], [ %12, %if.end38 ]
  %s.addr.2 = phi ptr [ %s.addr.0, %while.body ], [ %arrayidx27.le, %for.end.loopexit.split.loop.exit ], [ %arrayidx15.le, %for.end.loopexit.split.loop.exit36 ], [ %arrayidx4.le, %for.end.loopexit.split.loop.exit40 ], [ %add.ptr39, %if.end38 ]
  %cmp = icmp eq i8 %16, %end_quote
  br i1 %cmp, label %if.then42, label %if.else

if.then42:                                        ; preds = %for.end
  %17 = load ptr, ptr %g, align 8
  %tobool.not.i = icmp eq ptr %17, null
  br i1 %tobool.not.i, label %_ZN4pugi4impl12_GLOBAL__N_13gap5flushEPc.exit, label %if.then.i

if.then.i:                                        ; preds = %if.then42
  %18 = load i64, ptr %size.i6, align 8
  %idx.neg.i = sub i64 0, %18
  %add.ptr.i = getelementptr inbounds i8, ptr %17, i64 %idx.neg.i
  %sub.ptr.lhs.cast.i = ptrtoint ptr %s.addr.2 to i64
  %sub.ptr.rhs.cast.i = ptrtoint ptr %17 to i64
  %sub.ptr.sub.i = sub i64 %sub.ptr.lhs.cast.i, %sub.ptr.rhs.cast.i
  tail call void @llvm.memmove.p0.p0.i64(ptr nonnull align 1 %add.ptr.i, ptr nonnull align 1 %17, i64 %sub.ptr.sub.i, i1 false)
  %add.ptr7.i = getelementptr inbounds i8, ptr %s.addr.2, i64 %idx.neg.i
  br label %_ZN4pugi4impl12_GLOBAL__N_13gap5flushEPc.exit

_ZN4pugi4impl12_GLOBAL__N_13gap5flushEPc.exit:    ; preds = %if.then42, %if.then.i
  %retval.0.i = phi ptr [ %add.ptr7.i, %if.then.i ], [ %s.addr.2, %if.then42 ]
  store i8 0, ptr %retval.0.i, align 1
  %add.ptr43 = getelementptr inbounds i8, ptr %s.addr.2, i64 1
  br label %return

if.else:                                          ; preds = %for.end
  %19 = and i8 %15, 8
  %tobool48.not = icmp eq i8 %19, 0
  br i1 %tobool48.not, label %if.else60, label %if.then49

if.then49:                                        ; preds = %if.else
  %cmp51 = icmp eq i8 %16, 13
  %incdec.ptr = getelementptr inbounds i8, ptr %s.addr.2, i64 1
  store i8 32, ptr %s.addr.2, align 1
  br i1 %cmp51, label %if.then52, label %while.body.backedge

while.body.backedge:                              ; preds = %if.then49, %if.then52, %_ZN4pugi4impl12_GLOBAL__N_13gap4pushERPcm.exit, %if.else68, %if.then63
  %s.addr.0.be = phi ptr [ %incdec.ptr69, %if.else68 ], [ %call64, %if.then63 ], [ %add.ptr5.i, %_ZN4pugi4impl12_GLOBAL__N_13gap4pushERPcm.exit ], [ %incdec.ptr, %if.then52 ], [ %incdec.ptr, %if.then49 ]
  br label %while.body, !llvm.loop !274

if.then52:                                        ; preds = %if.then49
  %20 = load i8, ptr %incdec.ptr, align 1
  %cmp54 = icmp eq i8 %20, 10
  br i1 %cmp54, label %if.then55, label %while.body.backedge

if.then55:                                        ; preds = %if.then52
  %21 = load ptr, ptr %g, align 8
  %tobool.not.i4 = icmp eq ptr %21, null
  %.pre = load i64, ptr %size.i6, align 8
  br i1 %tobool.not.i4, label %_ZN4pugi4impl12_GLOBAL__N_13gap4pushERPcm.exit, label %if.then.i5

if.then.i5:                                       ; preds = %if.then55
  %idx.neg.i7 = sub i64 0, %.pre
  %add.ptr.i8 = getelementptr inbounds i8, ptr %21, i64 %idx.neg.i7
  %sub.ptr.lhs.cast.i9 = ptrtoint ptr %incdec.ptr to i64
  %sub.ptr.rhs.cast.i10 = ptrtoint ptr %21 to i64
  %sub.ptr.sub.i11 = sub i64 %sub.ptr.lhs.cast.i9, %sub.ptr.rhs.cast.i10
  tail call void @llvm.memmove.p0.p0.i64(ptr nonnull align 1 %add.ptr.i8, ptr nonnull align 1 %21, i64 %sub.ptr.sub.i11, i1 false)
  br label %_ZN4pugi4impl12_GLOBAL__N_13gap4pushERPcm.exit

_ZN4pugi4impl12_GLOBAL__N_13gap4pushERPcm.exit:   ; preds = %if.then55, %if.then.i5
  %add.ptr5.i = getelementptr inbounds i8, ptr %s.addr.2, i64 2
  store ptr %add.ptr5.i, ptr %g, align 8
  %add.i = add i64 %.pre, 1
  store i64 %add.i, ptr %size.i6, align 8
  br label %while.body.backedge

if.else60:                                        ; preds = %if.else
  switch i8 %16, label %if.else68 [
    i8 38, label %if.then63
    i8 0, label %return
  ]

if.then63:                                        ; preds = %if.else60
  %call64 = call fastcc noundef ptr @_ZN4pugi4impl12_GLOBAL__N_114strconv_escapeEPcRNS1_3gapE(ptr noundef nonnull %s.addr.2, ptr noundef nonnull align 8 dereferenceable(16) %g)
  br label %while.body.backedge

if.else68:                                        ; preds = %if.else60
  %incdec.ptr69 = getelementptr inbounds i8, ptr %s.addr.2, i64 1
  br label %while.body.backedge

return:                                           ; preds = %if.else60, %_ZN4pugi4impl12_GLOBAL__N_13gap5flushEPc.exit
  %retval.0 = phi ptr [ %add.ptr43, %_ZN4pugi4impl12_GLOBAL__N_13gap5flushEPc.exit ], [ null, %if.else60 ]
  ret ptr %retval.0
}